; Function Attrs: null_pointer_is_valid sspstrong uwtable
define internal noundef zeroext i1 @eti_thr_2(ptr noundef %0, ptr noundef %1, ptr readnone captures(none) %2, i32 noundef %3, i32 %4, i32 noundef %5) #0 {
  %7 = icmp eq i32 %3, 1
  br i1 %7, label %8, label %13

8:                                                ; preds = %6
  %9 = load i32, ptr @hf_ipmi_se_evt_trigger_reading, align 4
  %10 = tail call ptr @proto_tree_add_item(ptr noundef %0, i32 noundef %9, ptr noundef %1, i32 noundef 0, i32 noundef 1, i32 noundef -2147483648)
  %11 = icmp eq i32 %5, 255
  br i1 %11, label %12, label %13

12:                                               ; preds = %8
  tail call void (ptr, ptr, ...) @proto_item_append_text(ptr noundef %10, ptr noundef nonnull @.str.1022)
  br label %13

13:                                               ; preds = %6, %8, %12
  ret i1 %7
}